target datalayout = "e-m:e-p270:32:32-p271:32:32-p272:64:64-i64:64-i128:128-f80:128-n8:16:32:64-S128"
target triple = "x86_64-pc-linux-gnu"

; Function Attrs: alwaysinline nounwind uwtable
define internal zeroext i1 @ResamplerAdd(i64 noundef %0, i64 noundef %1, ptr noundef %2) #3 {
  %4 = alloca i1, align 1
  %5 = alloca i64, align 8
  %6 = alloca i64, align 8
  %7 = alloca ptr, align 8
  store i64 %0, ptr %5, align 8
  store i64 %1, ptr %6, align 8
  store ptr %2, ptr %7, align 8
  %8 = load i64, ptr %6, align 8
  %9 = icmp sgt i64 %8, 0
  br i1 %9, label %10, label %16

10:                                               ; preds = %3
  %11 = load i64, ptr %5, align 8
  %12 = load i64, ptr %6, align 8
  %13 = sub nsw i64 9223372036854775807, %12
  %14 = icmp sgt i64 %11, %13
  br i1 %14, label %15, label %16

15:                                               ; preds = %10
  store i1 false, ptr %4, align 1
  br label %21

16:                                               ; preds = %10, %3
  %17 = load i64, ptr %5, align 8
  %18 = load i64, ptr %6, align 8
  %19 = add nsw i64 %17, %18
  %20 = load ptr, ptr %7, align 8
  store i64 %19, ptr %20, align 8
  store i1 true, ptr %4, align 1
  br label %21

21:                                               ; preds = %16, %15
  %22 = load i1, ptr %4, align 1
  ret i1 %22
}

; Function Attrs: alwaysinline nounwind uwtable
define internal zeroext i1 @ResamplerMul(i64 noundef %0, i64 noundef %1, ptr noundef %2) #3 {
  %4 = alloca i1, align 1
  %5 = alloca i64, align 8
  %6 = alloca i64, align 8
  %7 = alloca ptr, align 8
  store i64 %0, ptr %5, align 8
  store i64 %1, ptr %6, align 8
  store ptr %2, ptr %7, align 8
  %8 = load i64, ptr %6, align 8
  %9 = icmp sgt i64 %8, 0
  br i1 %9, label %10, label %16

10:                                               ; preds = %3
  %11 = load i64, ptr %5, align 8
  %12 = load i64, ptr %6, align 8
  %13 = sdiv i64 9223372036854775807, %12
  %14 = icmp sgt i64 %11, %13
  br i1 %14, label %15, label %16

15:                                               ; preds = %10
  store i1 false, ptr %4, align 1
  br label %21

16:                                               ; preds = %10, %3
  %17 = load i64, ptr %5, align 8
  %18 = load i64, ptr %6, align 8
  %19 = mul nsw i64 %17, %18
  %20 = load ptr, ptr %7, align 8
  store i64 %19, ptr %20, align 8
  store i1 true, ptr %4, align 1
  br label %21

21:                                               ; preds = %16, %15
  %22 = load i1, ptr %4, align 1
  ret i1 %22
}

; Function Attrs: nounwind uwtable
define hidden i64 @SDL_GetResamplerInputFrames(i64 noundef %0, i64 noundef %1, i64 noundef %2) #0 {
  %4 = alloca i64, align 8
  %5 = alloca i64, align 8
  %6 = alloca i64, align 8
  %7 = alloca i64, align 8
  %8 = alloca i64, align 8
  store i64 %0, ptr %4, align 8
  store i64 %1, ptr %5, align 8
  store i64 %2, ptr %6, align 8
  call void @llvm.lifetime.start.p0(i64 8, ptr %7) #6
  %9 = load i64, ptr %4, align 8
  %10 = load i64, ptr %5, align 8
  %11 = call zeroext i1 @ResamplerMul(i64 noundef %9, i64 noundef %10, ptr noundef %7)
  br i1 %11, label %12, label %20

12:                                               ; preds = %3
  %13 = load i64, ptr %7, align 8
  %14 = load i64, ptr %5, align 8
  %15 = sub nsw i64 0, %14
  %16 = load i64, ptr %6, align 8
  %17 = add nsw i64 %15, %16
  %18 = add nsw i64 %17, 4294967296
  %19 = call zeroext i1 @ResamplerAdd(i64 noundef %13, i64 noundef %18, ptr noundef %7)
  br i1 %19, label %21, label %20

20:                                               ; preds = %12, %3
  store i64 9223372036854775807, ptr %7, align 8
  br label %21

21:                                               ; preds = %20, %12
  call void @llvm.lifetime.start.p0(i64 8, ptr %8) #6
  %22 = load i64, ptr %7, align 8
  %23 = ashr i64 %22, 32
  %24 = trunc i64 %23 to i32
  %25 = sext i32 %24 to i64
  store i64 %25, ptr %8, align 8
  %26 = load i64, ptr %8, align 8
  %27 = icmp sgt i64 %26, 0
  br i1 %27, label %28, label %30

28:                                               ; preds = %21
  %29 = load i64, ptr %8, align 8
  br label %31

30:                                               ; preds = %21
  br label %31

31:                                               ; preds = %30, %28
  %32 = phi i64 [ %29, %28 ], [ 0, %30 ]
  store i64 %32, ptr %8, align 8
  %33 = load i64, ptr %8, align 8
  call void @llvm.lifetime.end.p0(i64 8, ptr %8) #6
  call void @llvm.lifetime.end.p0(i64 8, ptr %7) #6
  ret i64 %33
}