; Function Attrs: mustprogress nofree norecurse nosync nounwind willreturn memory(none) uwtable
define hidden range(i64 0, 2147483648) i64 @SDL_GetResamplerInputFrames(i64 noundef %0, i64 noundef %1, i64 noundef %2) local_unnamed_addr #2 {
  %4 = icmp sgt i64 %1, 0
  br i1 %4, label %5, label %8

5:                                                ; preds = %3
  %6 = udiv i64 9223372036854775807, %1
  %7 = icmp sgt i64 %0, %6
  br i1 %7, label %ResamplerMul.exit, label %8

8:                                                ; preds = %3, %5
  %9 = mul nsw i64 %1, %0
  %10 = sub nsw i64 %2, %1
  %11 = icmp sgt i64 %10, -4294967296
  %12 = sub nsw i64 9223372032559808511, %10
  %13 = icmp sgt i64 %9, %12
  %or.cond.i = select i1 %11, i1 %13, i1 false
  %14 = add i64 %9, 4294967296
  %15 = add i64 %14, %10
  %16 = ashr i64 %15, 32
  %17 = select i1 %or.cond.i, i64 2147483647, i64 %16
  br label %ResamplerMul.exit

ResamplerMul.exit:                                ; preds = %8, %5
  %.0 = phi i64 [ 2147483647, %5 ], [ %17, %8 ]
  %18 = tail call i64 @llvm.smax.i64(i64 %.0, i64 0)
  ret i64 %18
}